; Function Attrs: nounwind uwtable
define internal ptr @frame_getbuiltins(ptr readnone captures(none) %0, ptr noundef %1) #0 {
  %3 = getelementptr i8, ptr %1, i64 8
  %.val = load ptr, ptr %3, align 8, !tbaa !3
  %.not = icmp eq ptr %.val, @PyFrame_Type
  br i1 %.not, label %6, label %4

4:                                                ; preds = %2
  %5 = load ptr, ptr @PyExc_TypeError, align 8, !tbaa !9
  tail call void @PyErr_SetString(ptr noundef %5, ptr noundef nonnull @.str.9) #4
  br label %8

6:                                                ; preds = %2
  %7 = tail call ptr @PyFrame_GetBuiltins(ptr noundef nonnull %1) #4
  br label %8

8:                                                ; preds = %6, %4
  %.0 = phi ptr [ %7, %6 ], [ null, %4 ]
  ret ptr %.0
}